target datalayout = "e-m:e-p270:32:32-p271:32:32-p272:64:64-i64:64-i128:128-f80:128-n8:16:32:64-S128"
target triple = "x86_64-pc-linux-gnu"

%struct.stbtt__buf = type { ptr, i32, i32 }
%struct.stbtt_fontinfo = type { ptr, ptr, i32, i32, i32, i32, i32, i32, i32, i32, i32, i32, i32, i32, %struct.stbtt__buf, %struct.stbtt__buf, %struct.stbtt__buf, %struct.stbtt__buf, %struct.stbtt__buf, %struct.stbtt__buf }
%struct.stbrp_context = type { i32, i32, i32, i32, i32 }
%struct.stbrp_rect = type { i32, i32, i32, i32, i32, i32 }
%struct.stbtt_pack_context = type { ptr, ptr, i32, i32, i32, i32, i32, i32, i32, ptr, ptr }
%struct.stbtt_pack_range = type { float, i32, ptr, i32, ptr, i8, i8 }
%struct.stbtt_packedchar = type { i16, i16, i16, i16, float, float, float, float, float }

; Function Attrs: nounwind uwtable
define void @stbrp_pack_rects(ptr noundef %0, ptr noundef %1, i32 noundef %2) #0 {
  %4 = alloca ptr, align 8
  %5 = alloca ptr, align 8
  %6 = alloca i32, align 4
  %7 = alloca i32, align 4
  store ptr %0, ptr %4, align 8, !tbaa !3
  store ptr %1, ptr %5, align 8, !tbaa !190
  store i32 %2, ptr %6, align 4, !tbaa !14
  call void @llvm.lifetime.start.p0(i64 4, ptr %7) #8
  store i32 0, ptr %7, align 4, !tbaa !14
  br label %8

8:                                                ; preds = %111, %3
  %9 = load i32, ptr %7, align 4, !tbaa !14
  %10 = load i32, ptr %6, align 4, !tbaa !14
  %11 = icmp slt i32 %9, %10
  br i1 %11, label %12, label %114

12:                                               ; preds = %8
  %13 = load ptr, ptr %4, align 8, !tbaa !3
  %14 = getelementptr inbounds nuw %struct.stbrp_context, ptr %13, i32 0, i32 2
  %15 = load i32, ptr %14, align 4, !tbaa !187
  %16 = load ptr, ptr %5, align 8, !tbaa !190
  %17 = load i32, ptr %7, align 4, !tbaa !14
  %18 = sext i32 %17 to i64
  %19 = getelementptr inbounds %struct.stbrp_rect, ptr %16, i64 %18
  %20 = getelementptr inbounds nuw %struct.stbrp_rect, ptr %19, i32 0, i32 3
  %21 = load i32, ptr %20, align 4, !tbaa !192
  %22 = add nsw i32 %15, %21
  %23 = load ptr, ptr %4, align 8, !tbaa !3
  %24 = getelementptr inbounds nuw %struct.stbrp_context, ptr %23, i32 0, i32 0
  %25 = load i32, ptr %24, align 4, !tbaa !184
  %26 = icmp sgt i32 %22, %25
  br i1 %26, label %27, label %35

27:                                               ; preds = %12
  %28 = load ptr, ptr %4, align 8, !tbaa !3
  %29 = getelementptr inbounds nuw %struct.stbrp_context, ptr %28, i32 0, i32 2
  store i32 0, ptr %29, align 4, !tbaa !187
  %30 = load ptr, ptr %4, align 8, !tbaa !3
  %31 = getelementptr inbounds nuw %struct.stbrp_context, ptr %30, i32 0, i32 4
  %32 = load i32, ptr %31, align 4, !tbaa !189
  %33 = load ptr, ptr %4, align 8, !tbaa !3
  %34 = getelementptr inbounds nuw %struct.stbrp_context, ptr %33, i32 0, i32 3
  store i32 %32, ptr %34, align 4, !tbaa !188
  br label %35

35:                                               ; preds = %27, %12
  %36 = load ptr, ptr %4, align 8, !tbaa !3
  %37 = getelementptr inbounds nuw %struct.stbrp_context, ptr %36, i32 0, i32 3
  %38 = load i32, ptr %37, align 4, !tbaa !188
  %39 = load ptr, ptr %5, align 8, !tbaa !190
  %40 = load i32, ptr %7, align 4, !tbaa !14
  %41 = sext i32 %40 to i64
  %42 = getelementptr inbounds %struct.stbrp_rect, ptr %39, i64 %41
  %43 = getelementptr inbounds nuw %struct.stbrp_rect, ptr %42, i32 0, i32 4
  %44 = load i32, ptr %43, align 4, !tbaa !194
  %45 = add nsw i32 %38, %44
  %46 = load ptr, ptr %4, align 8, !tbaa !3
  %47 = getelementptr inbounds nuw %struct.stbrp_context, ptr %46, i32 0, i32 1
  %48 = load i32, ptr %47, align 4, !tbaa !186
  %49 = icmp sgt i32 %45, %48
  br i1 %49, label %50, label %51

50:                                               ; preds = %35
  br label %114

51:                                               ; preds = %35
  %52 = load ptr, ptr %4, align 8, !tbaa !3
  %53 = getelementptr inbounds nuw %struct.stbrp_context, ptr %52, i32 0, i32 2
  %54 = load i32, ptr %53, align 4, !tbaa !187
  %55 = load ptr, ptr %5, align 8, !tbaa !190
  %56 = load i32, ptr %7, align 4, !tbaa !14
  %57 = sext i32 %56 to i64
  %58 = getelementptr inbounds %struct.stbrp_rect, ptr %55, i64 %57
  %59 = getelementptr inbounds nuw %struct.stbrp_rect, ptr %58, i32 0, i32 0
  store i32 %54, ptr %59, align 4, !tbaa !195
  %60 = load ptr, ptr %4, align 8, !tbaa !3
  %61 = getelementptr inbounds nuw %struct.stbrp_context, ptr %60, i32 0, i32 3
  %62 = load i32, ptr %61, align 4, !tbaa !188
  %63 = load ptr, ptr %5, align 8, !tbaa !190
  %64 = load i32, ptr %7, align 4, !tbaa !14
  %65 = sext i32 %64 to i64
  %66 = getelementptr inbounds %struct.stbrp_rect, ptr %63, i64 %65
  %67 = getelementptr inbounds nuw %struct.stbrp_rect, ptr %66, i32 0, i32 1
  store i32 %62, ptr %67, align 4, !tbaa !196
  %68 = load ptr, ptr %5, align 8, !tbaa !190
  %69 = load i32, ptr %7, align 4, !tbaa !14
  %70 = sext i32 %69 to i64
  %71 = getelementptr inbounds %struct.stbrp_rect, ptr %68, i64 %70
  %72 = getelementptr inbounds nuw %struct.stbrp_rect, ptr %71, i32 0, i32 5
  store i32 1, ptr %72, align 4, !tbaa !197
  %73 = load ptr, ptr %5, align 8, !tbaa !190
  %74 = load i32, ptr %7, align 4, !tbaa !14
  %75 = sext i32 %74 to i64
  %76 = getelementptr inbounds %struct.stbrp_rect, ptr %73, i64 %75
  %77 = getelementptr inbounds nuw %struct.stbrp_rect, ptr %76, i32 0, i32 3
  %78 = load i32, ptr %77, align 4, !tbaa !192
  %79 = load ptr, ptr %4, align 8, !tbaa !3
  %80 = getelementptr inbounds nuw %struct.stbrp_context, ptr %79, i32 0, i32 2
  %81 = load i32, ptr %80, align 4, !tbaa !187
  %82 = add nsw i32 %81, %78
  store i32 %82, ptr %80, align 4, !tbaa !187
  %83 = load ptr, ptr %4, align 8, !tbaa !3
  %84 = getelementptr inbounds nuw %struct.stbrp_context, ptr %83, i32 0, i32 3
  %85 = load i32, ptr %84, align 4, !tbaa !188
  %86 = load ptr, ptr %5, align 8, !tbaa !190
  %87 = load i32, ptr %7, align 4, !tbaa !14
  %88 = sext i32 %87 to i64
  %89 = getelementptr inbounds %struct.stbrp_rect, ptr %86, i64 %88
  %90 = getelementptr inbounds nuw %struct.stbrp_rect, ptr %89, i32 0, i32 4
  %91 = load i32, ptr %90, align 4, !tbaa !194
  %92 = add nsw i32 %85, %91
  %93 = load ptr, ptr %4, align 8, !tbaa !3
  %94 = getelementptr inbounds nuw %struct.stbrp_context, ptr %93, i32 0, i32 4
  %95 = load i32, ptr %94, align 4, !tbaa !189
  %96 = icmp sgt i32 %92, %95
  br i1 %96, label %97, label %110

97:                                               ; preds = %51
  %98 = load ptr, ptr %4, align 8, !tbaa !3
  %99 = getelementptr inbounds nuw %struct.stbrp_context, ptr %98, i32 0, i32 3
  %100 = load i32, ptr %99, align 4, !tbaa !188
  %101 = load ptr, ptr %5, align 8, !tbaa !190
  %102 = load i32, ptr %7, align 4, !tbaa !14
  %103 = sext i32 %102 to i64
  %104 = getelementptr inbounds %struct.stbrp_rect, ptr %101, i64 %103
  %105 = getelementptr inbounds nuw %struct.stbrp_rect, ptr %104, i32 0, i32 4
  %106 = load i32, ptr %105, align 4, !tbaa !194
  %107 = add nsw i32 %100, %106
  %108 = load ptr, ptr %4, align 8, !tbaa !3
  %109 = getelementptr inbounds nuw %struct.stbrp_context, ptr %108, i32 0, i32 4
  store i32 %107, ptr %109, align 4, !tbaa !189
  br label %110

110:                                              ; preds = %97, %51
  br label %111

111:                                              ; preds = %110
  %112 = load i32, ptr %7, align 4, !tbaa !14
  %113 = add nsw i32 %112, 1
  store i32 %113, ptr %7, align 4, !tbaa !14
  br label %8, !llvm.loop !198

114:                                              ; preds = %50, %8
  br label %115

115:                                              ; preds = %125, %114
  %116 = load i32, ptr %7, align 4, !tbaa !14
  %117 = load i32, ptr %6, align 4, !tbaa !14
  %118 = icmp slt i32 %116, %117
  br i1 %118, label %119, label %128

119:                                              ; preds = %115
  %120 = load ptr, ptr %5, align 8, !tbaa !190
  %121 = load i32, ptr %7, align 4, !tbaa !14
  %122 = sext i32 %121 to i64
  %123 = getelementptr inbounds %struct.stbrp_rect, ptr %120, i64 %122
  %124 = getelementptr inbounds nuw %struct.stbrp_rect, ptr %123, i32 0, i32 5
  store i32 0, ptr %124, align 4, !tbaa !197
  br label %125

125:                                              ; preds = %119
  %126 = load i32, ptr %7, align 4, !tbaa !14
  %127 = add nsw i32 %126, 1
  store i32 %127, ptr %7, align 4, !tbaa !14
  br label %115, !llvm.loop !199

128:                                              ; preds = %115
  call void @llvm.lifetime.end.p0(i64 4, ptr %7) #8
  ret void
}

; Function Attrs: nounwind uwtable
define void @stbtt_PackFontRangesPackRects(ptr noundef %0, ptr noundef %1, i32 noundef %2) #0 {
  %4 = alloca ptr, align 8
  %5 = alloca ptr, align 8
  %6 = alloca i32, align 4
  store ptr %0, ptr %4, align 8, !tbaa !200
  store ptr %1, ptr %5, align 8, !tbaa !190
  store i32 %2, ptr %6, align 4, !tbaa !14
  %7 = load ptr, ptr %4, align 8, !tbaa !200
  %8 = getelementptr inbounds nuw %struct.stbtt_pack_context, ptr %7, i32 0, i32 1
  %9 = load ptr, ptr %8, align 8, !tbaa !207
  %10 = load ptr, ptr %5, align 8, !tbaa !190
  %11 = load i32, ptr %6, align 4, !tbaa !14
  call void @stbrp_pack_rects(ptr noundef %9, ptr noundef %10, i32 noundef %11)
  ret void
}

; Function Attrs: nounwind uwtable
define i32 @stbtt_InitFont(ptr noundef %0, ptr noundef %1, i32 noundef %2) #0 {
  %4 = alloca ptr, align 8
  %5 = alloca ptr, align 8
  %6 = alloca i32, align 4
  store ptr %0, ptr %4, align 8, !tbaa !28
  store ptr %1, ptr %5, align 8, !tbaa !25
  store i32 %2, ptr %6, align 4, !tbaa !14
  %7 = load ptr, ptr %4, align 8, !tbaa !28
  %8 = load ptr, ptr %5, align 8, !tbaa !25
  %9 = load i32, ptr %6, align 4, !tbaa !14
  %10 = call i32 @stbtt_InitFont_internal(ptr noundef %7, ptr noundef %8, i32 noundef %9)
  ret i32 %10
}

; Function Attrs: nounwind uwtable
define i32 @stbtt_GetFontOffsetForIndex(ptr noundef %0, i32 noundef %1) #0 {
  %3 = alloca ptr, align 8
  %4 = alloca i32, align 4
  store ptr %0, ptr %3, align 8, !tbaa !25
  store i32 %1, ptr %4, align 4, !tbaa !14
  %5 = load ptr, ptr %3, align 8, !tbaa !25
  %6 = load i32, ptr %4, align 4, !tbaa !14
  %7 = call i32 @stbtt_GetFontOffsetForIndex_internal(ptr noundef %5, i32 noundef %6)
  ret i32 %7
}

; Function Attrs: nounwind uwtable
define i32 @stbtt_PackFontRanges(ptr noundef %0, ptr noundef %1, i32 noundef %2, ptr noundef %3, i32 noundef %4) #0 {
  %6 = alloca i32, align 4
  %7 = alloca ptr, align 8
  %8 = alloca ptr, align 8
  %9 = alloca i32, align 4
  %10 = alloca ptr, align 8
  %11 = alloca i32, align 4
  %12 = alloca %struct.stbtt_fontinfo, align 8
  %13 = alloca i32, align 4
  %14 = alloca i32, align 4
  %15 = alloca i32, align 4
  %16 = alloca i32, align 4
  %17 = alloca ptr, align 8
  %18 = alloca i32, align 4
  store ptr %0, ptr %7, align 8, !tbaa !200
  store ptr %1, ptr %8, align 8, !tbaa !25
  store i32 %2, ptr %9, align 4, !tbaa !14
  store ptr %3, ptr %10, align 8, !tbaa !3
  store i32 %4, ptr %11, align 4, !tbaa !14
  call void @llvm.lifetime.start.p0(i64 160, ptr %12) #8
  call void @llvm.lifetime.start.p0(i64 4, ptr %13) #8
  call void @llvm.lifetime.start.p0(i64 4, ptr %14) #8
  call void @llvm.lifetime.start.p0(i64 4, ptr %15) #8
  call void @llvm.lifetime.start.p0(i64 4, ptr %16) #8
  store i32 1, ptr %16, align 4, !tbaa !14
  call void @llvm.lifetime.start.p0(i64 8, ptr %17) #8
  store i32 0, ptr %13, align 4, !tbaa !14
  br label %19

19:                                               ; preds = %78, %5
  %20 = load i32, ptr %13, align 4, !tbaa !14
  %21 = load i32, ptr %11, align 4, !tbaa !14
  %22 = icmp slt i32 %20, %21
  br i1 %22, label %23, label %81

23:                                               ; preds = %19
  store i32 0, ptr %14, align 4, !tbaa !14
  br label %24

24:                                               ; preds = %74, %23
  %25 = load i32, ptr %14, align 4, !tbaa !14
  %26 = load ptr, ptr %10, align 8, !tbaa !3
  %27 = load i32, ptr %13, align 4, !tbaa !14
  %28 = sext i32 %27 to i64
  %29 = getelementptr inbounds %struct.stbtt_pack_range, ptr %26, i64 %28
  %30 = getelementptr inbounds nuw %struct.stbtt_pack_range, ptr %29, i32 0, i32 3
  %31 = load i32, ptr %30, align 8, !tbaa !232
  %32 = icmp slt i32 %25, %31
  br i1 %32, label %33, label %77

33:                                               ; preds = %24
  %34 = load ptr, ptr %10, align 8, !tbaa !3
  %35 = load i32, ptr %13, align 4, !tbaa !14
  %36 = sext i32 %35 to i64
  %37 = getelementptr inbounds %struct.stbtt_pack_range, ptr %34, i64 %36
  %38 = getelementptr inbounds nuw %struct.stbtt_pack_range, ptr %37, i32 0, i32 4
  %39 = load ptr, ptr %38, align 8, !tbaa !237
  %40 = load i32, ptr %14, align 4, !tbaa !14
  %41 = sext i32 %40 to i64
  %42 = getelementptr inbounds %struct.stbtt_packedchar, ptr %39, i64 %41
  %43 = getelementptr inbounds nuw %struct.stbtt_packedchar, ptr %42, i32 0, i32 3
  store i16 0, ptr %43, align 2, !tbaa !242
  %44 = load ptr, ptr %10, align 8, !tbaa !3
  %45 = load i32, ptr %13, align 4, !tbaa !14
  %46 = sext i32 %45 to i64
  %47 = getelementptr inbounds %struct.stbtt_pack_range, ptr %44, i64 %46
  %48 = getelementptr inbounds nuw %struct.stbtt_pack_range, ptr %47, i32 0, i32 4
  %49 = load ptr, ptr %48, align 8, !tbaa !237
  %50 = load i32, ptr %14, align 4, !tbaa !14
  %51 = sext i32 %50 to i64
  %52 = getelementptr inbounds %struct.stbtt_packedchar, ptr %49, i64 %51
  %53 = getelementptr inbounds nuw %struct.stbtt_packedchar, ptr %52, i32 0, i32 2
  store i16 0, ptr %53, align 4, !tbaa !241
  %54 = load ptr, ptr %10, align 8, !tbaa !3
  %55 = load i32, ptr %13, align 4, !tbaa !14
  %56 = sext i32 %55 to i64
  %57 = getelementptr inbounds %struct.stbtt_pack_range, ptr %54, i64 %56
  %58 = getelementptr inbounds nuw %struct.stbtt_pack_range, ptr %57, i32 0, i32 4
  %59 = load ptr, ptr %58, align 8, !tbaa !237
  %60 = load i32, ptr %14, align 4, !tbaa !14
  %61 = sext i32 %60 to i64
  %62 = getelementptr inbounds %struct.stbtt_packedchar, ptr %59, i64 %61
  %63 = getelementptr inbounds nuw %struct.stbtt_packedchar, ptr %62, i32 0, i32 1
  store i16 0, ptr %63, align 2, !tbaa !240
  %64 = load ptr, ptr %10, align 8, !tbaa !3
  %65 = load i32, ptr %13, align 4, !tbaa !14
  %66 = sext i32 %65 to i64
  %67 = getelementptr inbounds %struct.stbtt_pack_range, ptr %64, i64 %66
  %68 = getelementptr inbounds nuw %struct.stbtt_pack_range, ptr %67, i32 0, i32 4
  %69 = load ptr, ptr %68, align 8, !tbaa !237
  %70 = load i32, ptr %14, align 4, !tbaa !14
  %71 = sext i32 %70 to i64
  %72 = getelementptr inbounds %struct.stbtt_packedchar, ptr %69, i64 %71
  %73 = getelementptr inbounds nuw %struct.stbtt_packedchar, ptr %72, i32 0, i32 0
  store i16 0, ptr %73, align 4, !tbaa !238
  br label %74

74:                                               ; preds = %33
  %75 = load i32, ptr %14, align 4, !tbaa !14
  %76 = add nsw i32 %75, 1
  store i32 %76, ptr %14, align 4, !tbaa !14
  br label %24, !llvm.loop !251

77:                                               ; preds = %24
  br label %78

78:                                               ; preds = %77
  %79 = load i32, ptr %13, align 4, !tbaa !14
  %80 = add nsw i32 %79, 1
  store i32 %80, ptr %13, align 4, !tbaa !14
  br label %19, !llvm.loop !252

81:                                               ; preds = %19
  store i32 0, ptr %15, align 4, !tbaa !14
  store i32 0, ptr %13, align 4, !tbaa !14
  br label %82

82:                                               ; preds = %95, %81
  %83 = load i32, ptr %13, align 4, !tbaa !14
  %84 = load i32, ptr %11, align 4, !tbaa !14
  %85 = icmp slt i32 %83, %84
  br i1 %85, label %86, label %98

86:                                               ; preds = %82
  %87 = load ptr, ptr %10, align 8, !tbaa !3
  %88 = load i32, ptr %13, align 4, !tbaa !14
  %89 = sext i32 %88 to i64
  %90 = getelementptr inbounds %struct.stbtt_pack_range, ptr %87, i64 %89
  %91 = getelementptr inbounds nuw %struct.stbtt_pack_range, ptr %90, i32 0, i32 3
  %92 = load i32, ptr %91, align 8, !tbaa !232
  %93 = load i32, ptr %15, align 4, !tbaa !14
  %94 = add nsw i32 %93, %92
  store i32 %94, ptr %15, align 4, !tbaa !14
  br label %95

95:                                               ; preds = %86
  %96 = load i32, ptr %13, align 4, !tbaa !14
  %97 = add nsw i32 %96, 1
  store i32 %97, ptr %13, align 4, !tbaa !14
  br label %82, !llvm.loop !253

98:                                               ; preds = %82
  %99 = load i32, ptr %15, align 4, !tbaa !14
  %100 = sext i32 %99 to i64
  %101 = mul i64 24, %100
  %102 = call noalias ptr @malloc(i64 noundef %101) #9
  store ptr %102, ptr %17, align 8, !tbaa !190
  %103 = load ptr, ptr %17, align 8, !tbaa !190
  %104 = icmp eq ptr %103, null
  br i1 %104, label %105, label %106

105:                                              ; preds = %98
  store i32 0, ptr %6, align 4
  store i32 1, ptr %18, align 4
  br label %131

106:                                              ; preds = %98
  %107 = load ptr, ptr %7, align 8, !tbaa !200
  %108 = getelementptr inbounds nuw %struct.stbtt_pack_context, ptr %107, i32 0, i32 0
  %109 = load ptr, ptr %108, align 8, !tbaa !202
  %110 = getelementptr inbounds nuw %struct.stbtt_fontinfo, ptr %12, i32 0, i32 0
  store ptr %109, ptr %110, align 8, !tbaa !165
  %111 = load ptr, ptr %8, align 8, !tbaa !25
  %112 = load ptr, ptr %8, align 8, !tbaa !25
  %113 = load i32, ptr %9, align 4, !tbaa !14
  %114 = call i32 @stbtt_GetFontOffsetForIndex(ptr noundef %112, i32 noundef %113)
  %115 = call i32 @stbtt_InitFont(ptr noundef %12, ptr noundef %111, i32 noundef %114)
  %116 = load ptr, ptr %7, align 8, !tbaa !200
  %117 = load ptr, ptr %10, align 8, !tbaa !3
  %118 = load i32, ptr %11, align 4, !tbaa !14
  %119 = load ptr, ptr %17, align 8, !tbaa !190
  %120 = call i32 @stbtt_PackFontRangesGatherRects(ptr noundef %116, ptr noundef %12, ptr noundef %117, i32 noundef %118, ptr noundef %119)
  store i32 %120, ptr %15, align 4, !tbaa !14
  %121 = load ptr, ptr %7, align 8, !tbaa !200
  %122 = load ptr, ptr %17, align 8, !tbaa !190
  %123 = load i32, ptr %15, align 4, !tbaa !14
  call void @stbtt_PackFontRangesPackRects(ptr noundef %121, ptr noundef %122, i32 noundef %123)
  %124 = load ptr, ptr %7, align 8, !tbaa !200
  %125 = load ptr, ptr %10, align 8, !tbaa !3
  %126 = load i32, ptr %11, align 4, !tbaa !14
  %127 = load ptr, ptr %17, align 8, !tbaa !190
  %128 = call i32 @stbtt_PackFontRangesRenderIntoRects(ptr noundef %124, ptr noundef %12, ptr noundef %125, i32 noundef %126, ptr noundef %127)
  store i32 %128, ptr %16, align 4, !tbaa !14
  %129 = load ptr, ptr %17, align 8, !tbaa !190
  call void @free(ptr noundef %129) #8
  %130 = load i32, ptr %16, align 4, !tbaa !14
  store i32 %130, ptr %6, align 4
  store i32 1, ptr %18, align 4
  br label %131

131:                                              ; preds = %106, %105
  call void @llvm.lifetime.end.p0(i64 8, ptr %17) #8
  call void @llvm.lifetime.end.p0(i64 4, ptr %16) #8
  call void @llvm.lifetime.end.p0(i64 4, ptr %15) #8
  call void @llvm.lifetime.end.p0(i64 4, ptr %14) #8
  call void @llvm.lifetime.end.p0(i64 4, ptr %13) #8
  call void @llvm.lifetime.end.p0(i64 160, ptr %12) #8
  %132 = load i32, ptr %6, align 4
  ret i32 %132
}