; Function Attrs: nounwind uwtable
define range(i32 0, 2) i32 @stbtt_PackFontRanges(ptr noundef captures(none) %0, ptr noundef %1, i32 noundef %2, ptr noundef captures(none) %3, i32 noundef %4) local_unnamed_addr #11 {
  %6 = alloca %struct.stbtt_fontinfo, align 8
  call void @llvm.lifetime.start.p0(i64 160, ptr nonnull %6) #32
  %7 = icmp sgt i32 %4, 0
  br i1 %7, label %.preheader50.preheader, label %._crit_edge57

.preheader50.preheader:                           ; preds = %5
  %wide.trip.count64 = zext nneg i32 %4 to i64
  br label %.preheader50

.preheader50:                                     ; preds = %.preheader50.preheader, %._crit_edge
  %indvars.iv61 = phi i64 [ 0, %.preheader50.preheader ], [ %indvars.iv.next62, %._crit_edge ]
  %8 = getelementptr inbounds nuw %struct.stbtt_pack_range, ptr %3, i64 %indvars.iv61
  %9 = getelementptr inbounds nuw i8, ptr %8, i64 16
  %10 = load i32, ptr %9, align 8, !tbaa !207
  %11 = icmp sgt i32 %10, 0
  br i1 %11, label %.lr.ph, label %._crit_edge

.lr.ph:                                           ; preds = %.preheader50
  %12 = getelementptr inbounds nuw i8, ptr %8, i64 24
  %13 = load ptr, ptr %12, align 8, !tbaa !212
  %wide.trip.count = zext nneg i32 %10 to i64
  br label %14

.lr.ph56.preheader:                               ; preds = %._crit_edge
  %wide.trip.count69 = zext nneg i32 %4 to i64
  br label %.lr.ph56

14:                                               ; preds = %.lr.ph, %14
  %indvars.iv = phi i64 [ 0, %.lr.ph ], [ %indvars.iv.next, %14 ]
  %15 = getelementptr inbounds nuw %struct.stbtt_packedchar, ptr %13, i64 %indvars.iv
  %indvars.iv.next = add nuw nsw i64 %indvars.iv, 1
  %exitcond.not = icmp eq i64 %indvars.iv.next, %wide.trip.count
  store i64 0, ptr %15, align 4
  br i1 %exitcond.not, label %._crit_edge, label %14, !llvm.loop !227

._crit_edge:                                      ; preds = %14, %.preheader50
  %indvars.iv.next62 = add nuw nsw i64 %indvars.iv61, 1
  %exitcond65.not = icmp eq i64 %indvars.iv.next62, %wide.trip.count64
  br i1 %exitcond65.not, label %.lr.ph56.preheader, label %.preheader50, !llvm.loop !228

.lr.ph56:                                         ; preds = %.lr.ph56.preheader, %.lr.ph56
  %indvars.iv66 = phi i64 [ 0, %.lr.ph56.preheader ], [ %indvars.iv.next67, %.lr.ph56 ]
  %.04455 = phi i32 [ 0, %.lr.ph56.preheader ], [ %18, %.lr.ph56 ]
  %16 = getelementptr inbounds nuw %struct.stbtt_pack_range, ptr %3, i64 %indvars.iv66, i32 3
  %17 = load i32, ptr %16, align 8, !tbaa !207
  %18 = add nsw i32 %17, %.04455
  %indvars.iv.next67 = add nuw nsw i64 %indvars.iv66, 1
  %exitcond70.not = icmp eq i64 %indvars.iv.next67, %wide.trip.count69
  br i1 %exitcond70.not, label %._crit_edge57.loopexit, label %.lr.ph56, !llvm.loop !229

._crit_edge57.loopexit:                           ; preds = %.lr.ph56
  %19 = sext i32 %18 to i64
  %20 = mul nsw i64 %19, 24
  br label %._crit_edge57

._crit_edge57:                                    ; preds = %5, %._crit_edge57.loopexit
  %.044.lcssa = phi i64 [ %20, %._crit_edge57.loopexit ], [ 0, %5 ]
  %21 = tail call noalias ptr @malloc(i64 noundef %.044.lcssa) #33
  %22 = icmp eq ptr %21, null
  br i1 %22, label %67, label %23

23:                                               ; preds = %._crit_edge57
  %24 = load ptr, ptr %0, align 8, !tbaa !177
  store ptr %24, ptr %6, align 8, !tbaa !144
  %25 = tail call i32 @stbtt_GetFontOffsetForIndex_internal(ptr noundef readonly %1, i32 noundef %2)
  %26 = call range(i32 0, 2) i32 @stbtt_InitFont_internal(ptr noundef nonnull %6, ptr noundef %1, i32 noundef %25)
  %27 = call i32 @stbtt_PackFontRangesGatherRects(ptr noundef nonnull %0, ptr noundef nonnull %6, ptr noundef %3, i32 noundef %4, ptr noundef nonnull %21)
  %28 = icmp sgt i32 %27, 0
  br i1 %28, label %.lr.ph.i.i, label %._crit_edge.i.i

.lr.ph.i.i:                                       ; preds = %23
  %29 = getelementptr inbounds nuw i8, ptr %0, i64 8
  %30 = load ptr, ptr %29, align 8, !tbaa !182
  %31 = getelementptr inbounds nuw i8, ptr %30, i64 8
  %32 = load i32, ptr %30, align 4, !tbaa !163
  %33 = getelementptr inbounds nuw i8, ptr %30, i64 16
  %34 = getelementptr inbounds nuw i8, ptr %30, i64 12
  %35 = getelementptr inbounds nuw i8, ptr %30, i64 4
  %36 = load i32, ptr %35, align 4, !tbaa !165
  %.promoted.i.i = load i32, ptr %31, align 4, !tbaa !166
  %.promoted41.i.i = load i32, ptr %34, align 4, !tbaa !167
  %wide.trip.count.i.i = zext nneg i32 %27 to i64
  br label %37

37:                                               ; preds = %61, %.lr.ph.i.i
  %indvars.iv.i.i = phi i64 [ 0, %.lr.ph.i.i ], [ %indvars.iv.next.i.i, %61 ]
  %38 = phi i32 [ %.promoted41.i.i, %.lr.ph.i.i ], [ %48, %61 ]
  %39 = phi i32 [ %.promoted.i.i, %.lr.ph.i.i ], [ %57, %61 ]
  %40 = getelementptr inbounds nuw %struct.stbrp_rect, ptr %21, i64 %indvars.iv.i.i
  %41 = getelementptr inbounds nuw i8, ptr %40, i64 12
  %42 = load i32, ptr %41, align 4, !tbaa !169
  %43 = add nsw i32 %42, %39
  %44 = icmp sgt i32 %43, %32
  br i1 %44, label %45, label %47

45:                                               ; preds = %37
  store i32 0, ptr %31, align 4, !tbaa !166
  %46 = load i32, ptr %33, align 4, !tbaa !168
  store i32 %46, ptr %34, align 4, !tbaa !167
  br label %47

47:                                               ; preds = %45, %37
  %48 = phi i32 [ %46, %45 ], [ %38, %37 ]
  %49 = phi i32 [ 0, %45 ], [ %39, %37 ]
  %50 = getelementptr inbounds nuw i8, ptr %40, i64 16
  %51 = load i32, ptr %50, align 4, !tbaa !171
  %52 = add nsw i32 %51, %48
  %53 = icmp sgt i32 %52, %36
  br i1 %53, label %._crit_edge.loopexit.i.i, label %54

54:                                               ; preds = %47
  store i32 %49, ptr %40, align 4, !tbaa !172
  %55 = getelementptr inbounds nuw i8, ptr %40, i64 4
  store i32 %48, ptr %55, align 4, !tbaa !173
  %56 = getelementptr inbounds nuw i8, ptr %40, i64 20
  store i32 1, ptr %56, align 4, !tbaa !174
  %57 = add nsw i32 %49, %42
  store i32 %57, ptr %31, align 4, !tbaa !166
  %58 = load i32, ptr %33, align 4, !tbaa !168
  %59 = icmp sgt i32 %52, %58
  br i1 %59, label %60, label %61

60:                                               ; preds = %54
  store i32 %52, ptr %33, align 4, !tbaa !168
  br label %61

61:                                               ; preds = %60, %54
  %indvars.iv.next.i.i = add nuw nsw i64 %indvars.iv.i.i, 1
  %exitcond.not.i.i = icmp eq i64 %indvars.iv.next.i.i, %wide.trip.count.i.i
  br i1 %exitcond.not.i.i, label %stbtt_PackFontRangesPackRects.exit, label %37, !llvm.loop !175

._crit_edge.loopexit.i.i:                         ; preds = %47
  %62 = trunc nuw nsw i64 %indvars.iv.i.i to i32
  br label %._crit_edge.i.i

._crit_edge.i.i:                                  ; preds = %._crit_edge.loopexit.i.i, %23
  %.0.lcssa.i.i = phi i32 [ 0, %23 ], [ %62, %._crit_edge.loopexit.i.i ]
  %63 = icmp slt i32 %.0.lcssa.i.i, %27
  br i1 %63, label %.lr.ph44.preheader.i.i, label %stbtt_PackFontRangesPackRects.exit

.lr.ph44.preheader.i.i:                           ; preds = %._crit_edge.i.i
  %64 = zext i32 %.0.lcssa.i.i to i64
  %wide.trip.count.i = zext i32 %27 to i64
  br label %.lr.ph44.i.i

.lr.ph44.i.i:                                     ; preds = %.lr.ph44.i.i, %.lr.ph44.preheader.i.i
  %indvars.iv47.i.i = phi i64 [ %64, %.lr.ph44.preheader.i.i ], [ %indvars.iv.next48.i.i, %.lr.ph44.i.i ]
  %65 = getelementptr inbounds nuw %struct.stbrp_rect, ptr %21, i64 %indvars.iv47.i.i, i32 5
  store i32 0, ptr %65, align 4, !tbaa !174
  %indvars.iv.next48.i.i = add nuw nsw i64 %indvars.iv47.i.i, 1
  %exitcond.not.i = icmp eq i64 %indvars.iv.next48.i.i, %wide.trip.count.i
  br i1 %exitcond.not.i, label %stbtt_PackFontRangesPackRects.exit, label %.lr.ph44.i.i, !llvm.loop !176

stbtt_PackFontRangesPackRects.exit:               ; preds = %61, %.lr.ph44.i.i, %._crit_edge.i.i
  %66 = call i32 @stbtt_PackFontRangesRenderIntoRects(ptr noundef nonnull %0, ptr noundef nonnull %6, ptr noundef %3, i32 noundef %4, ptr noundef nonnull %21)
  tail call void @free(ptr noundef nonnull %21) #32
  br label %67

67:                                               ; preds = %._crit_edge57, %stbtt_PackFontRangesPackRects.exit
  %.0 = phi i32 [ %66, %stbtt_PackFontRangesPackRects.exit ], [ 0, %._crit_edge57 ]
  call void @llvm.lifetime.end.p0(i64 160, ptr nonnull %6) #32
  ret i32 %.0
}